; Function Attrs: mustprogress uwtable
define noundef zeroext i1 @_ZN5ImGui12BeginTabItemEPKcPbi(ptr noundef %0, ptr noundef %1, i32 noundef %2) local_unnamed_addr #6 {
  %4 = load ptr, ptr @GImGui, align 8, !tbaa !3
  %5 = getelementptr inbounds nuw i8, ptr %4, i64 5016
  %6 = load ptr, ptr %5, align 8, !tbaa !8
  %7 = getelementptr inbounds nuw i8, ptr %6, i64 207
  %8 = load i8, ptr %7, align 1, !tbaa !152, !range !153, !noundef !154
  %9 = trunc nuw i8 %8 to i1
  br i1 %9, label %27, label %10

10:                                               ; preds = %3
  %11 = getelementptr inbounds nuw i8, ptr %4, i64 8744
  %12 = load ptr, ptr %11, align 8, !tbaa !753
  %13 = icmp eq ptr %12, null
  br i1 %13, label %14, label %16

14:                                               ; preds = %10
  %15 = tail call noundef zeroext i1 @_ZN5ImGui8ErrorLogEPKc(ptr noundef nonnull @.str.128)
  br label %27

16:                                               ; preds = %10
  %17 = tail call noundef zeroext i1 @_ZN5ImGui9TabItemExEP11ImGuiTabBarPKcPbiP11ImGuiWindow(ptr noundef nonnull %12, ptr noundef %0, ptr noundef %1, i32 noundef %2, ptr noundef null)
  %18 = and i32 %2, 8
  %.not = icmp eq i32 %18, 0
  %or.cond = and i1 %.not, %17
  br i1 %or.cond, label %19, label %27

19:                                               ; preds = %16
  %20 = getelementptr inbounds nuw i8, ptr %12, i64 128
  %21 = load i16, ptr %20, align 8, !tbaa !737
  %22 = getelementptr inbounds nuw i8, ptr %12, i64 16
  %23 = load ptr, ptr %22, align 8, !tbaa !773
  %24 = sext i16 %21 to i64
  %25 = getelementptr inbounds %struct.ImGuiTabItem, ptr %23, i64 %24
  %26 = load i32, ptr %25, align 4, !tbaa !776
  tail call void @_ZN5ImGui14PushOverrideIDEj(i32 noundef %26)
  br label %27

27:                                               ; preds = %14, %19, %16, %3
  %.0 = phi i1 [ false, %3 ], [ false, %14 ], [ true, %19 ], [ %17, %16 ]
  ret i1 %.0
}